AIBinder_getCallingUid
AIBinder_Weak_new
AIBinder_Weak_delete
AIBinder_Weak_promote
AIBinder_incStrong
AIBinder_Weak_clone
AIBinder_lt
AIBinder_Weak_lt
AIBinder_Class_define
AIBinder_Class_setOnDump
AIBinder_Class_disableInterfaceTokenHeader
AIBinder_Class_setHandleShellCommand
AIBinder_Class_getDescriptor
AIBinder_new
AIBinder_isRemote
AIBinder_isAlive
AIBinder_ping
AIBinder_dump
AIBinder_linkToDeath
AIBinder_unlinkToDeath
AIBinder_getCallingPid
AIBinder_isHandlingTransaction
AIBinder_decStrong
AIBinder_debugGetRefCount
AIBinder_associateClass
AIBinder_getClass
AIBinder_getUserData
AIBinder_prepareTransaction
AIBinder_transact
AIBinder_DeathRecipient_new
AIBinder_DeathRecipient_setOnUnlinked
AIBinder_DeathRecipient_delete
AIBinder_getExtension
AIBinder_setExtension
AIBinder_setRequestingSid
AIBinder_getCallingSid
AIBinder_setMinSchedulerPolicy
AIBinder_setInheritRt
AIBinder_fromJavaBinder
AIBinder_toJavaBinder
AParcel_delete
AParcel_setDataPosition
AParcel_getDataPosition
AParcel_markSensitive
AParcel_writeStrongBinder
AParcel_readStrongBinder
AParcel_writeParcelFileDescriptor
AParcel_readParcelFileDescriptor
AParcel_writeStatusHeader
AParcel_readStatusHeader
AParcel_writeString
AParcel_readString
AParcel_writeStringArray
AParcel_readStringArray
AParcel_writeParcelableArray
AParcel_readParcelableArray
AParcel_writeInt32
AParcel_writeUint32
AParcel_writeInt64
AParcel_writeUint64
AParcel_writeFloat
AParcel_writeDouble
AParcel_writeBool
AParcel_writeChar
AParcel_writeByte
AParcel_readInt32
AParcel_readUint32
AParcel_readInt64
AParcel_readUint64
AParcel_readFloat
AParcel_readDouble
AParcel_readBool
AParcel_readChar
AParcel_readByte
AParcel_writeInt32Array
AParcel_writeUint32Array
AParcel_writeInt64Array
AParcel_writeUint64Array
AParcel_writeFloatArray
AParcel_writeDoubleArray
AParcel_writeBoolArray
AParcel_writeCharArray
AParcel_writeByteArray
AParcel_readInt32Array
AParcel_readUint32Array
AParcel_readInt64Array
AParcel_readUint64Array
AParcel_readFloatArray
AParcel_readDoubleArray
AParcel_readBoolArray
AParcel_readCharArray
AParcel_readByteArray
AParcel_getAllowFds
AParcel_reset
AParcel_getDataSize
AParcel_appendFrom
AParcel_create
AParcel_marshal
AParcel_unmarshal
AParcel_fromJavaParcel
ABinderProcess_startThreadPool
ABinderProcess_setThreadPoolMaxThreadCount
ABinderProcess_isThreadPoolStarted
ABinderProcess_joinThreadPool
ABinderProcess_setupPolling
ABinderProcess_handlePolledCommands
AIBinder_markVendorStability
AIBinder_markSystemStability
AIBinder_markVintfStability
AIBinder_forceDowngradeToVendorStability
AIBinder_forceDowngradeToSystemStability
AStatus_newOk
AStatus_fromExceptionCode
AStatus_fromExceptionCodeWithMessage
AStatus_fromServiceSpecificError
AStatus_fromServiceSpecificErrorWithMessage
AStatus_fromStatus
AStatus_isOk
AStatus_getExceptionCode
AStatus_getServiceSpecificError
AStatus_getStatus
AStatus_getMessage
AStatus_getDescription
AStatus_deleteDescription
AStatus_delete
AServiceManager_addService
AServiceManager_checkService
AServiceManager_getService
AServiceManager_registerLazyService
AServiceManager_waitForService
AServiceManager_registerForServiceNotifications
AServiceManager_NotificationRegistration_delete
AServiceManager_isDeclared
AServiceManager_forEachDeclaredInstance
AServiceManager_isUpdatableViaApex
AServiceManager_getUpdatableApexName
AServiceManager_forceLazyServicesPersist
AServiceManager_setActiveServicesCallback
AServiceManager_tryUnregister
AServiceManager_reRegister
_Z25AIBinder_toPlatformBinderP8AIBinder
_Z27AIBinder_fromPlatformBinderRKN7android2spINS_7IBinderEEE
_Z26AParcel_viewPlatformParcelP7AParcel
_Z26AParcel_viewPlatformParcelPK7AParcel
APersistableBundle_delete
APersistableBundle_dup
APersistableBundle_erase
APersistableBundle_getBoolean
APersistableBundle_getBooleanKeys
APersistableBundle_getBooleanVector
APersistableBundle_getBooleanVectorKeys
APersistableBundle_getDouble
APersistableBundle_getDoubleKeys
APersistableBundle_getDoubleVector
APersistableBundle_getDoubleVectorKeys
APersistableBundle_getInt
APersistableBundle_getIntKeys
APersistableBundle_getIntVector
APersistableBundle_getIntVectorKeys
APersistableBundle_getLong
APersistableBundle_getLongKeys
APersistableBundle_getLongVector
APersistableBundle_getLongVectorKeys
APersistableBundle_getPersistableBundle
APersistableBundle_getPersistableBundleKeys
APersistableBundle_getString
APersistableBundle_getStringKeys
APersistableBundle_getStringVector
APersistableBundle_getStringVectorKeys
APersistableBundle_isEqual
APersistableBundle_new
APersistableBundle_putBoolean
APersistableBundle_putBooleanVector
APersistableBundle_putDouble
APersistableBundle_putDoubleVector
APersistableBundle_putInt
APersistableBundle_putIntVector
APersistableBundle_putLong
APersistableBundle_putLongVector
APersistableBundle_putPersistableBundle
APersistableBundle_putString
APersistableBundle_putStringVector
APersistableBundle_readFromParcel
APersistableBundle_size
APersistableBundle_writeToParcel
_ZN7android2os17PersistableBundle10putBooleanERKNS_8String16Eb
_ZN7android2os17PersistableBundle12putIntVectorERKNS_8String16ERKNSt3__16vectorIiNS5_9allocatorIiEEEE
_ZN7android2os17PersistableBundle13putLongVectorERKNS_8String16ERKNSt3__16vectorIlNS5_9allocatorIlEEEE
_ZN7android2os17PersistableBundle14readFromParcelEPKNS_6ParcelE
_ZN7android2os17PersistableBundle15putDoubleVectorERKNS_8String16ERKNSt3__16vectorIdNS5_9allocatorIdEEEE
_ZN7android2os17PersistableBundle15putStringVectorERKNS_8String16ERKNSt3__16vectorIS2_NS5_9allocatorIS2_EEEE
_ZN7android2os17PersistableBundle16putBooleanVectorERKNS_8String16ERKNSt3__16vectorIbNS5_9allocatorIbEEEE
_ZN7android2os17PersistableBundle20putPersistableBundleERKNS_8String16ERKS1_
_ZN7android2os17PersistableBundle5eraseERKNS_8String16E
_ZN7android2os17PersistableBundle6putIntERKNS_8String16Ei
_ZN7android2os17PersistableBundle7putLongERKNS_8String16El
_ZN7android2os17PersistableBundle9putDoubleERKNS_8String16Ed
_ZN7android2os17PersistableBundle9putStringERKNS_8String16ES4_
_ZNK7android2os17PersistableBundle10getBooleanERKNS_8String16EPb
_ZNK7android2os17PersistableBundle10getIntKeysEv
_ZNK7android2os17PersistableBundle11getLongKeysEv
_ZNK7android2os17PersistableBundle12getIntVectorERKNS_8String16EPNSt3__16vectorIiNS5_9allocatorIiEEEE
_ZNK7android2os17PersistableBundle13getDoubleKeysEv
_ZNK7android2os17PersistableBundle13getLongVectorERKNS_8String16EPNSt3__16vectorIlNS5_9allocatorIlEEEE
_ZNK7android2os17PersistableBundle13getStringKeysEv
_ZNK7android2os17PersistableBundle13writeToParcelEPNS_6ParcelE
_ZNK7android2os17PersistableBundle14getBooleanKeysEv
_ZNK7android2os17PersistableBundle15getDoubleVectorERKNS_8String16EPNSt3__16vectorIdNS5_9allocatorIdEEEE
_ZNK7android2os17PersistableBundle15getStringVectorERKNS_8String16EPNSt3__16vectorIS2_NS5_9allocatorIS2_EEEE
_ZNK7android2os17PersistableBundle16getBooleanVectorERKNS_8String16EPNSt3__16vectorIbNS5_9allocatorIbEEEE
_ZNK7android2os17PersistableBundle16getIntVectorKeysEv
_ZNK7android2os17PersistableBundle17getLongVectorKeysEv
_ZNK7android2os17PersistableBundle19getDoubleVectorKeysEv
_ZNK7android2os17PersistableBundle19getStringVectorKeysEv
_ZNK7android2os17PersistableBundle20getBooleanVectorKeysEv
_ZNK7android2os17PersistableBundle20getPersistableBundleERKNS_8String16EPS1_
_ZNK7android2os17PersistableBundle24getPersistableBundleKeysEv
_ZNK7android2os17PersistableBundle4sizeEv
_ZNK7android2os17PersistableBundle6getIntERKNS_8String16EPi
_ZNK7android2os17PersistableBundle7getLongERKNS_8String16EPl
_ZNK7android2os17PersistableBundle9getDoubleERKNS_8String16EPd
_ZNK7android2os17PersistableBundle9getStringERKNS_8String16EPS2_
_ZTVN7android2os17PersistableBundleE